target datalayout = "e-m:e-p270:32:32-p271:32:32-p272:64:64-i64:64-i128:128-f80:128-n8:16:32:64-S128"
target triple = "x86_64-pc-linux-gnu"

%"class.ncnn::Mat" = type { ptr, ptr, i64, i32, ptr, i32, i32, i32, i32, i32, i64 }

; Function Attrs: alwaysinline mustprogress nounwind uwtable
define linkonce_odr hidden noundef ptr @_ZN4ncnn3MatcvPT_IlEEv(ptr noundef nonnull align 8 dereferenceable(72) %0) #6 comdat align 2 {
  %2 = alloca ptr, align 8
  store ptr %0, ptr %2, align 8, !tbaa !13
  %3 = load ptr, ptr %2, align 8
  %4 = getelementptr inbounds nuw %"class.ncnn::Mat", ptr %3, i32 0, i32 0
  %5 = load ptr, ptr %4, align 8, !tbaa !64
  ret ptr %5
}

; Function Attrs: alwaysinline mustprogress nounwind uwtable
define linkonce_odr hidden noundef ptr @_ZNK4ncnn3MatcvPKT_IlEEv(ptr noundef nonnull align 8 dereferenceable(72) %0) #6 comdat align 2 {
  %2 = alloca ptr, align 8
  store ptr %0, ptr %2, align 8, !tbaa !13
  %3 = load ptr, ptr %2, align 8
  %4 = getelementptr inbounds nuw %"class.ncnn::Mat", ptr %3, i32 0, i32 0
  %5 = load ptr, ptr %4, align 8, !tbaa !64
  ret ptr %5
}

; Function Attrs: mustprogress uwtable
define internal void @_ZN4ncnnL31padding_constant_pack8_int8_sseERKNS_3MatERS0_iiiil(ptr noundef nonnull align 8 dereferenceable(72) %0, ptr noundef nonnull align 8 dereferenceable(72) %1, i32 noundef %2, i32 noundef %3, i32 noundef %4, i32 noundef %5, i64 noundef %6) #3 {
  %8 = alloca ptr, align 8
  %9 = alloca ptr, align 8
  %10 = alloca i32, align 4
  %11 = alloca i32, align 4
  %12 = alloca i32, align 4
  %13 = alloca i32, align 4
  %14 = alloca i64, align 8
  %15 = alloca ptr, align 8
  %16 = alloca ptr, align 8
  %17 = alloca i32, align 4
  %18 = alloca i32, align 4
  %19 = alloca i32, align 4
  %20 = alloca i32, align 4
  %21 = alloca i32, align 4
  %22 = alloca i32, align 4
  %23 = alloca i32, align 4
  %24 = alloca i32, align 4
  %25 = alloca i32, align 4
  store ptr %0, ptr %8, align 8, !tbaa !13
  store ptr %1, ptr %9, align 8, !tbaa !13
  store i32 %2, ptr %10, align 4, !tbaa !43
  store i32 %3, ptr %11, align 4, !tbaa !43
  store i32 %4, ptr %12, align 4, !tbaa !43
  store i32 %5, ptr %13, align 4, !tbaa !43
  store i64 %6, ptr %14, align 8, !tbaa !50
  call void @llvm.lifetime.start.p0(i64 8, ptr %15) #9
  %26 = load ptr, ptr %8, align 8, !tbaa !13
  %27 = call noundef ptr @_ZNK4ncnn3MatcvPKT_IlEEv(ptr noundef nonnull align 8 dereferenceable(72) %26)
  store ptr %27, ptr %15, align 8, !tbaa !140
  call void @llvm.lifetime.start.p0(i64 8, ptr %16) #9
  %28 = load ptr, ptr %9, align 8, !tbaa !13
  %29 = call noundef ptr @_ZN4ncnn3MatcvPT_IlEEv(ptr noundef nonnull align 8 dereferenceable(72) %28)
  store ptr %29, ptr %16, align 8, !tbaa !140
  call void @llvm.lifetime.start.p0(i64 4, ptr %17) #9
  store i32 0, ptr %17, align 4, !tbaa !43
  br label %30

30:                                               ; preds = %51, %7
  %31 = load i32, ptr %17, align 4, !tbaa !43
  %32 = load i32, ptr %10, align 4, !tbaa !43
  %33 = icmp slt i32 %31, %32
  br i1 %33, label %35, label %34

34:                                               ; preds = %30
  store i32 2, ptr %18, align 4
  call void @llvm.lifetime.end.p0(i64 4, ptr %17) #9
  br label %54

35:                                               ; preds = %30
  call void @llvm.lifetime.start.p0(i64 4, ptr %19) #9
  store i32 0, ptr %19, align 4, !tbaa !43
  br label %36

36:                                               ; preds = %47, %35
  %37 = load i32, ptr %19, align 4, !tbaa !43
  %38 = load ptr, ptr %9, align 8, !tbaa !13
  %39 = getelementptr inbounds nuw %"class.ncnn::Mat", ptr %38, i32 0, i32 6
  %40 = load i32, ptr %39, align 4, !tbaa !44
  %41 = icmp slt i32 %37, %40
  br i1 %41, label %43, label %42

42:                                               ; preds = %36
  store i32 5, ptr %18, align 4
  call void @llvm.lifetime.end.p0(i64 4, ptr %19) #9
  br label %50

43:                                               ; preds = %36
  %44 = load i64, ptr %14, align 8, !tbaa !50
  %45 = load ptr, ptr %16, align 8, !tbaa !140
  %46 = getelementptr inbounds nuw i64, ptr %45, i32 1
  store ptr %46, ptr %16, align 8, !tbaa !140
  store i64 %44, ptr %45, align 8, !tbaa !50
  br label %47

47:                                               ; preds = %43
  %48 = load i32, ptr %19, align 4, !tbaa !43
  %49 = add nsw i32 %48, 1
  store i32 %49, ptr %19, align 4, !tbaa !43
  br label %36, !llvm.loop !142

50:                                               ; preds = %42
  br label %51

51:                                               ; preds = %50
  %52 = load i32, ptr %17, align 4, !tbaa !43
  %53 = add nsw i32 %52, 1
  store i32 %53, ptr %17, align 4, !tbaa !43
  br label %30, !llvm.loop !143

54:                                               ; preds = %34
  call void @llvm.lifetime.start.p0(i64 4, ptr %20) #9
  store i32 0, ptr %20, align 4, !tbaa !43
  br label %55

55:                                               ; preds = %106, %54
  %56 = load i32, ptr %20, align 4, !tbaa !43
  %57 = load ptr, ptr %8, align 8, !tbaa !13
  %58 = getelementptr inbounds nuw %"class.ncnn::Mat", ptr %57, i32 0, i32 7
  %59 = load i32, ptr %58, align 8, !tbaa !45
  %60 = icmp slt i32 %56, %59
  br i1 %60, label %62, label %61

61:                                               ; preds = %55
  store i32 8, ptr %18, align 4
  call void @llvm.lifetime.end.p0(i64 4, ptr %20) #9
  br label %109

62:                                               ; preds = %55
  call void @llvm.lifetime.start.p0(i64 4, ptr %21) #9
  store i32 0, ptr %21, align 4, !tbaa !43
  br label %63

63:                                               ; preds = %72, %62
  %64 = load i32, ptr %21, align 4, !tbaa !43
  %65 = load i32, ptr %12, align 4, !tbaa !43
  %66 = icmp slt i32 %64, %65
  br i1 %66, label %68, label %67

67:                                               ; preds = %63
  store i32 11, ptr %18, align 4
  call void @llvm.lifetime.end.p0(i64 4, ptr %21) #9
  br label %75

68:                                               ; preds = %63
  %69 = load i64, ptr %14, align 8, !tbaa !50
  %70 = load ptr, ptr %16, align 8, !tbaa !140
  %71 = getelementptr inbounds nuw i64, ptr %70, i32 1
  store ptr %71, ptr %16, align 8, !tbaa !140
  store i64 %69, ptr %70, align 8, !tbaa !50
  br label %72

72:                                               ; preds = %68
  %73 = load i32, ptr %21, align 4, !tbaa !43
  %74 = add nsw i32 %73, 1
  store i32 %74, ptr %21, align 4, !tbaa !43
  br label %63, !llvm.loop !144

75:                                               ; preds = %67
  call void @llvm.lifetime.start.p0(i64 4, ptr %22) #9
  store i32 0, ptr %22, align 4, !tbaa !43
  br label %76

76:                                               ; preds = %89, %75
  %77 = load i32, ptr %22, align 4, !tbaa !43
  %78 = load ptr, ptr %8, align 8, !tbaa !13
  %79 = getelementptr inbounds nuw %"class.ncnn::Mat", ptr %78, i32 0, i32 6
  %80 = load i32, ptr %79, align 4, !tbaa !44
  %81 = icmp slt i32 %77, %80
  br i1 %81, label %83, label %82

82:                                               ; preds = %76
  store i32 14, ptr %18, align 4
  call void @llvm.lifetime.end.p0(i64 4, ptr %22) #9
  br label %92

83:                                               ; preds = %76
  %84 = load ptr, ptr %15, align 8, !tbaa !140
  %85 = getelementptr inbounds nuw i64, ptr %84, i32 1
  store ptr %85, ptr %15, align 8, !tbaa !140
  %86 = load i64, ptr %84, align 8, !tbaa !50
  %87 = load ptr, ptr %16, align 8, !tbaa !140
  %88 = getelementptr inbounds nuw i64, ptr %87, i32 1
  store ptr %88, ptr %16, align 8, !tbaa !140
  store i64 %86, ptr %87, align 8, !tbaa !50
  br label %89

89:                                               ; preds = %83
  %90 = load i32, ptr %22, align 4, !tbaa !43
  %91 = add nsw i32 %90, 1
  store i32 %91, ptr %22, align 4, !tbaa !43
  br label %76, !llvm.loop !145

92:                                               ; preds = %82
  call void @llvm.lifetime.start.p0(i64 4, ptr %23) #9
  store i32 0, ptr %23, align 4, !tbaa !43
  br label %93

93:                                               ; preds = %102, %92
  %94 = load i32, ptr %23, align 4, !tbaa !43
  %95 = load i32, ptr %13, align 4, !tbaa !43
  %96 = icmp slt i32 %94, %95
  br i1 %96, label %98, label %97

97:                                               ; preds = %93
  store i32 17, ptr %18, align 4
  call void @llvm.lifetime.end.p0(i64 4, ptr %23) #9
  br label %105

98:                                               ; preds = %93
  %99 = load i64, ptr %14, align 8, !tbaa !50
  %100 = load ptr, ptr %16, align 8, !tbaa !140
  %101 = getelementptr inbounds nuw i64, ptr %100, i32 1
  store ptr %101, ptr %16, align 8, !tbaa !140
  store i64 %99, ptr %100, align 8, !tbaa !50
  br label %102

102:                                              ; preds = %98
  %103 = load i32, ptr %23, align 4, !tbaa !43
  %104 = add nsw i32 %103, 1
  store i32 %104, ptr %23, align 4, !tbaa !43
  br label %93, !llvm.loop !146

105:                                              ; preds = %97
  br label %106

106:                                              ; preds = %105
  %107 = load i32, ptr %20, align 4, !tbaa !43
  %108 = add nsw i32 %107, 1
  store i32 %108, ptr %20, align 4, !tbaa !43
  br label %55, !llvm.loop !147

109:                                              ; preds = %61
  call void @llvm.lifetime.start.p0(i64 4, ptr %24) #9
  store i32 0, ptr %24, align 4, !tbaa !43
  br label %110

110:                                              ; preds = %131, %109
  %111 = load i32, ptr %24, align 4, !tbaa !43
  %112 = load i32, ptr %11, align 4, !tbaa !43
  %113 = icmp slt i32 %111, %112
  br i1 %113, label %115, label %114

114:                                              ; preds = %110
  store i32 20, ptr %18, align 4
  call void @llvm.lifetime.end.p0(i64 4, ptr %24) #9
  br label %134

115:                                              ; preds = %110
  call void @llvm.lifetime.start.p0(i64 4, ptr %25) #9
  store i32 0, ptr %25, align 4, !tbaa !43
  br label %116

116:                                              ; preds = %127, %115
  %117 = load i32, ptr %25, align 4, !tbaa !43
  %118 = load ptr, ptr %9, align 8, !tbaa !13
  %119 = getelementptr inbounds nuw %"class.ncnn::Mat", ptr %118, i32 0, i32 6
  %120 = load i32, ptr %119, align 4, !tbaa !44
  %121 = icmp slt i32 %117, %120
  br i1 %121, label %123, label %122

122:                                              ; preds = %116
  store i32 23, ptr %18, align 4
  call void @llvm.lifetime.end.p0(i64 4, ptr %25) #9
  br label %130

123:                                              ; preds = %116
  %124 = load i64, ptr %14, align 8, !tbaa !50
  %125 = load ptr, ptr %16, align 8, !tbaa !140
  %126 = getelementptr inbounds nuw i64, ptr %125, i32 1
  store ptr %126, ptr %16, align 8, !tbaa !140
  store i64 %124, ptr %125, align 8, !tbaa !50
  br label %127

127:                                              ; preds = %123
  %128 = load i32, ptr %25, align 4, !tbaa !43
  %129 = add nsw i32 %128, 1
  store i32 %129, ptr %25, align 4, !tbaa !43
  br label %116, !llvm.loop !148

130:                                              ; preds = %122
  br label %131

131:                                              ; preds = %130
  %132 = load i32, ptr %24, align 4, !tbaa !43
  %133 = add nsw i32 %132, 1
  store i32 %133, ptr %24, align 4, !tbaa !43
  br label %110, !llvm.loop !149

134:                                              ; preds = %114
  call void @llvm.lifetime.end.p0(i64 8, ptr %16) #9
  call void @llvm.lifetime.end.p0(i64 8, ptr %15) #9
  ret void
}